; Function Attrs: nounwind uwtable
define ptr @l_Lake_recFetchMemoize___rarg___lambda__2(ptr noundef %0, ptr noundef %1, ptr noundef %2, ptr noundef %3, ptr noundef %4) #0 {
  %6 = getelementptr inbounds nuw i8, ptr %0, i64 16
  %7 = load ptr, ptr %6, align 8, !tbaa !10
  %8 = ptrtoint ptr %7 to i64
  %9 = and i64 %8, 1
  %.not = icmp eq i64 %9, 0
  br i1 %.not, label %10, label %lean_inc.exit15

10:                                               ; preds = %5
  %.val.i = load i32, ptr %7, align 4, !tbaa !4
  %11 = icmp sgt i32 %.val.i, 0
  br i1 %11, label %12, label %14, !prof !9

12:                                               ; preds = %10
  %13 = add nuw i32 %.val.i, 1
  store i32 %13, ptr %7, align 4, !tbaa !4
  br label %lean_inc.exit15

14:                                               ; preds = %10
  %.not.i16 = icmp eq i32 %.val.i, 0
  br i1 %.not.i16, label %lean_inc.exit15, label %15

15:                                               ; preds = %14
  tail call void @lean_inc_ref_cold(ptr noundef nonnull %7) #3
  br label %lean_inc.exit15

lean_inc.exit15:                                  ; preds = %15, %14, %12, %5
  %16 = ptrtoint ptr %0 to i64
  %17 = and i64 %16, 1
  %.not20 = icmp eq i64 %17, 0
  br i1 %.not20, label %18, label %lean_dec.exit

18:                                               ; preds = %lean_inc.exit15
  %19 = load i32, ptr %0, align 4, !tbaa !4
  %20 = icmp sgt i32 %19, 1
  br i1 %20, label %21, label %23, !prof !9

21:                                               ; preds = %18
  %22 = add nsw i32 %19, -1
  store i32 %22, ptr %0, align 4, !tbaa !4
  br label %lean_dec.exit

23:                                               ; preds = %18
  %.not.i = icmp eq i32 %19, 0
  br i1 %.not.i, label %lean_dec.exit, label %24

24:                                               ; preds = %23
  tail call void @lean_dec_ref_cold(ptr noundef nonnull %0) #3
  br label %lean_dec.exit

lean_dec.exit:                                    ; preds = %24, %23, %21, %lean_inc.exit15
  %25 = ptrtoint ptr %4 to i64
  %26 = and i64 %25, 1
  %.not21 = icmp eq i64 %26, 0
  br i1 %.not21, label %27, label %lean_inc.exit

27:                                               ; preds = %lean_dec.exit
  %.val.i17 = load i32, ptr %4, align 4, !tbaa !4
  %28 = icmp sgt i32 %.val.i17, 0
  br i1 %28, label %29, label %31, !prof !9

29:                                               ; preds = %27
  %30 = add nuw i32 %.val.i17, 1
  store i32 %30, ptr %4, align 4, !tbaa !4
  br label %lean_inc.exit

31:                                               ; preds = %27
  %.not.i18 = icmp eq i32 %.val.i17, 0
  br i1 %.not.i18, label %lean_inc.exit, label %32

32:                                               ; preds = %31
  tail call void @lean_inc_ref_cold(ptr noundef nonnull %4) #3
  br label %lean_inc.exit

lean_inc.exit:                                    ; preds = %32, %31, %29, %lean_dec.exit
  %33 = tail call ptr @lean_apply_2(ptr noundef %7, ptr noundef %1, ptr noundef %4) #3
  tail call void @lean_inc_heartbeat() #3
  %34 = tail call noalias ptr @mi_malloc_small(i64 noundef 40) #3
  %35 = icmp eq ptr %34, null
  br i1 %35, label %36, label %lean_alloc_closure.exit

36:                                               ; preds = %lean_inc.exit
  tail call void @lean_internal_panic_out_of_memory() #4
  unreachable

lean_alloc_closure.exit:                          ; preds = %lean_inc.exit
  %37 = getelementptr inbounds nuw i8, ptr %34, i64 4
  store i32 1, ptr %34, align 4, !tbaa !4
  store i32 -184549336, ptr %37, align 4
  %38 = getelementptr inbounds nuw i8, ptr %34, i64 8
  store ptr @l_Lake_recFetchMemoize___rarg___lambda__1___boxed, ptr %38, align 8, !tbaa !10
  %39 = getelementptr inbounds nuw i8, ptr %34, i64 16
  store i16 3, ptr %39, align 8, !tbaa !12
  %40 = getelementptr inbounds nuw i8, ptr %34, i64 18
  store i16 2, ptr %40, align 2, !tbaa !12
  %41 = getelementptr inbounds nuw i8, ptr %34, i64 24
  store ptr %2, ptr %41, align 8, !tbaa !10
  %42 = getelementptr inbounds nuw i8, ptr %34, i64 32
  store ptr %4, ptr %42, align 8, !tbaa !10
  %43 = tail call ptr @lean_apply_4(ptr noundef %3, ptr noundef nonnull inttoptr (i64 1 to ptr), ptr noundef nonnull inttoptr (i64 1 to ptr), ptr noundef %33, ptr noundef nonnull %34) #3
  ret ptr %43
}